target datalayout = "e-m:e-p270:32:32-p271:32:32-p272:64:64-i64:64-i128:128-f80:128-n8:16:32:64-S128"
target triple = "x86_64-pc-linux-gnu"

%struct.CVodeMemRec = type { ptr, double, ptr, ptr, i32, i32, double, double, ptr, i32, i32, ptr, ptr, i32, [13 x ptr], ptr, ptr, ptr, ptr, ptr, ptr, ptr, ptr, ptr, i32, i32, double, i32, i32, i32, i32, i32, double, double, double, double, double, double, double, double, [14 x double], [6 x double], [13 x double], double, double, double, double, double, double, double, i32, double, i32, i64, i32, i32, i32, double, double, double, double, double, double, double, double, double, double, double, double, i64, i32, i64, i64, i64, i64, i64, i64, i64, i32, double, double, double, i64, i64, i64, i64, ptr, i32, ptr, i32, ptr, ptr, ptr, ptr, ptr, i64, double, i32, i64, double, double, double, i32, double, i32, i32, i32, i32, i32, ptr, i64, i32, [6 x [4 x double]], i32, i64, ptr, i32, ptr, ptr, double, double, double, ptr, ptr, ptr, double, double, i32, i32, i64, ptr, i32, ptr, i32, i32, [13 x double], [13 x double], [13 x ptr], i32 }

@.str = private unnamed_addr constant [116 x i8] c"generated/home/dtcxzyw/WorkSpace/Projects/compilers/llvm-opt-benchmark/bench/sundials/sundials/src/cvode/cvode_io.c\00", align 1
@.str.1 = private unnamed_addr constant [26 x i8] c"cvode_mem = NULL illegal.\00", align 1
@__func__.CVodeSetMaxOrd = private unnamed_addr constant [15 x i8] c"CVodeSetMaxOrd\00", align 1
@.str.4 = private unnamed_addr constant [21 x i8] c"maxord <= 0 illegal.\00", align 1
@.str.5 = private unnamed_addr constant [50 x i8] c"Illegal attempt to increase maximum method order.\00", align 1

; Function Attrs: nounwind uwtable
define i32 @CVodeSetMaxOrd(ptr noundef %0, i32 noundef %1) #0 {
  %3 = alloca i32, align 4
  %4 = alloca ptr, align 8
  %5 = alloca i32, align 4
  %6 = alloca ptr, align 8
  %7 = alloca i32, align 4
  store ptr %0, ptr %4, align 8
  store i32 %1, ptr %5, align 4
  %8 = load ptr, ptr %4, align 8
  %9 = icmp eq ptr %8, null
  br i1 %9, label %10, label %11

10:                                               ; preds = %2
  call void (ptr, i32, i32, ptr, ptr, ptr, ...) @cvProcessError(ptr noundef null, i32 noundef -21, i32 noundef 161, ptr noundef @__func__.CVodeSetMaxOrd, ptr noundef @.str, ptr noundef @.str.1)
  store i32 -21, ptr %3, align 4
  br label %30

11:                                               ; preds = %2
  %12 = load ptr, ptr %4, align 8
  store ptr %12, ptr %6, align 8
  %13 = load i32, ptr %5, align 4
  %14 = icmp sle i32 %13, 0
  br i1 %14, label %15, label %17

15:                                               ; preds = %11
  %16 = load ptr, ptr %6, align 8
  call void (ptr, i32, i32, ptr, ptr, ptr, ...) @cvProcessError(ptr noundef %16, i32 noundef -22, i32 noundef 169, ptr noundef @__func__.CVodeSetMaxOrd, ptr noundef @.str, ptr noundef @.str.4)
  store i32 -22, ptr %3, align 4
  br label %30

17:                                               ; preds = %11
  %18 = load ptr, ptr %6, align 8
  %19 = getelementptr inbounds %struct.CVodeMemRec, ptr %18, i32 0, i32 104
  %20 = load i32, ptr %19, align 8
  store i32 %20, ptr %7, align 4
  %21 = load i32, ptr %5, align 4
  %22 = load i32, ptr %7, align 4
  %23 = icmp sgt i32 %21, %22
  br i1 %23, label %24, label %26

24:                                               ; preds = %17
  %25 = load ptr, ptr %6, align 8
  call void (ptr, i32, i32, ptr, ptr, ptr, ...) @cvProcessError(ptr noundef %25, i32 noundef -22, i32 noundef 180, ptr noundef @__func__.CVodeSetMaxOrd, ptr noundef @.str, ptr noundef @.str.5)
  store i32 -22, ptr %3, align 4
  br label %30

26:                                               ; preds = %17
  %27 = load i32, ptr %5, align 4
  %28 = load ptr, ptr %6, align 8
  %29 = getelementptr inbounds %struct.CVodeMemRec, ptr %28, i32 0, i32 52
  store i32 %27, ptr %29, align 8
  store i32 0, ptr %3, align 4
  br label %30

30:                                               ; preds = %26, %24, %15, %10
  %31 = load i32, ptr %3, align 4
  ret i32 %31
}