; Function Attrs: nounwind uwtable
define range(i32 -22, 1) i32 @CVodeSetMaxOrd(ptr noundef %0, i32 noundef %1) local_unnamed_addr #0 {
  %3 = icmp eq ptr %0, null
  br i1 %3, label %4, label %5

4:                                                ; preds = %2
  tail call void (ptr, i32, i32, ptr, ptr, ptr, ...) @cvProcessError(ptr noundef null, i32 noundef -21, i32 noundef 161, ptr noundef nonnull @__func__.CVodeSetMaxOrd, ptr noundef nonnull @.str, ptr noundef nonnull @.str.1) #7
  br label %15

5:                                                ; preds = %2
  %6 = icmp slt i32 %1, 1
  br i1 %6, label %7, label %8

7:                                                ; preds = %5
  tail call void (ptr, i32, i32, ptr, ptr, ptr, ...) @cvProcessError(ptr noundef nonnull %0, i32 noundef -22, i32 noundef 169, ptr noundef nonnull @__func__.CVodeSetMaxOrd, ptr noundef nonnull @.str, ptr noundef nonnull @.str.4) #7
  br label %15

8:                                                ; preds = %5
  %9 = getelementptr inbounds nuw i8, ptr %0, i64 1120
  %10 = load i32, ptr %9, align 8
  %11 = icmp sgt i32 %1, %10
  br i1 %11, label %12, label %13

12:                                               ; preds = %8
  tail call void (ptr, i32, i32, ptr, ptr, ptr, ...) @cvProcessError(ptr noundef nonnull %0, i32 noundef -22, i32 noundef 180, ptr noundef nonnull @__func__.CVodeSetMaxOrd, ptr noundef nonnull @.str, ptr noundef nonnull @.str.5) #7
  br label %15

13:                                               ; preds = %8
  %14 = getelementptr inbounds nuw i8, ptr %0, i64 712
  store i32 %1, ptr %14, align 8
  br label %15

15:                                               ; preds = %13, %12, %7, %4
  %.0 = phi i32 [ -21, %4 ], [ -22, %7 ], [ -22, %12 ], [ 0, %13 ]
  ret i32 %.0
}